target datalayout = "e-m:e-p270:32:32-p271:32:32-p272:64:64-i64:64-i128:128-f80:128-n8:16:32:64-S128"
target triple = "x86_64-pc-linux-gnu"

%struct.ident_t = type { i32, i32, i32, i32, ptr }
%"struct.faiss::OnDiskInvertedLists" = type <{ %"struct.faiss::InvertedLists.base", [7 x i8], %"class.std::vector.5", %"class.std::__cxx11::list", %"class.std::__cxx11::basic_string", i64, ptr, i8, [7 x i8], ptr, ptr, i32, [4 x i8] }>
%"struct.faiss::InvertedLists.base" = type <{ ptr, i64, i64, i8 }>
%"class.std::vector.5" = type { %"struct.std::_Vector_base.6" }
%"struct.std::_Vector_base.6" = type { %"struct.std::_Vector_base<faiss::OnDiskOneList, std::allocator<faiss::OnDiskOneList>>::_Vector_impl" }
%"struct.std::_Vector_base<faiss::OnDiskOneList, std::allocator<faiss::OnDiskOneList>>::_Vector_impl" = type { %"struct.std::_Vector_base<faiss::OnDiskOneList, std::allocator<faiss::OnDiskOneList>>::_Vector_impl_data" }
%"struct.std::_Vector_base<faiss::OnDiskOneList, std::allocator<faiss::OnDiskOneList>>::_Vector_impl_data" = type { ptr, ptr, ptr }
%"class.std::__cxx11::list" = type { %"class.std::__cxx11::_List_base" }
%"class.std::__cxx11::_List_base" = type { %"struct.std::__cxx11::_List_base<faiss::OnDiskInvertedLists::Slot, std::allocator<faiss::OnDiskInvertedLists::Slot>>::_List_impl" }
%"struct.std::__cxx11::_List_base<faiss::OnDiskInvertedLists::Slot, std::allocator<faiss::OnDiskInvertedLists::Slot>>::_List_impl" = type { %"struct.std::__detail::_List_node_header" }
%"struct.std::__detail::_List_node_header" = type { %"struct.std::__detail::_List_node_base", i64 }
%"struct.std::__detail::_List_node_base" = type { ptr, ptr }
%"class.std::__cxx11::basic_string" = type { %"struct.std::__cxx11::basic_string<char>::_Alloc_hider", i64, %union.anon }
%"struct.std::__cxx11::basic_string<char>::_Alloc_hider" = type { ptr }
%union.anon = type { i64, [8 x i8] }
%"struct.faiss::OnDiskOneList" = type { i64, i64, i64 }
%"struct.faiss::InvertedLists" = type <{ ptr, i64, i64, i8, [7 x i8] }>
%"struct.faiss::InvertedLists::ScopedIds" = type { ptr, ptr, i64 }
%"struct.faiss::InvertedLists::ScopedCodes" = type { ptr, ptr, i64 }

@1 = private unnamed_addr constant %struct.ident_t { i32 0, i32 514, i32 0, i32 22, ptr @0 }, align 8
@2 = private unnamed_addr constant %struct.ident_t { i32 0, i32 2, i32 0, i32 22, ptr @0 }, align 8
@.gomp_critical_user_.var = common global [8 x i32] zeroinitializer, align 8
@.str.23 = private unnamed_addr constant [28 x i8] c"merged %zd lists in %.3f s\0D\00", align 1
@stdout = external global ptr, align 8

; Function Attrs: mustprogress nounwind uwtable
define linkonce_odr void @_ZN5faiss13InvertedLists9ScopedIdsD2Ev(ptr noundef nonnull align 8 dereferenceable(24) %0) unnamed_addr #0 comdat align 2 personality ptr @__gxx_personality_v0 {
  %2 = alloca ptr, align 8
  store ptr %0, ptr %2, align 8
  %3 = load ptr, ptr %2, align 8
  %4 = getelementptr inbounds %"struct.faiss::InvertedLists::ScopedIds", ptr %3, i32 0, i32 0
  %5 = load ptr, ptr %4, align 8
  %6 = getelementptr inbounds %"struct.faiss::InvertedLists::ScopedIds", ptr %3, i32 0, i32 2
  %7 = load i64, ptr %6, align 8
  %8 = getelementptr inbounds %"struct.faiss::InvertedLists::ScopedIds", ptr %3, i32 0, i32 1
  %9 = load ptr, ptr %8, align 8
  %10 = load ptr, ptr %5, align 8
  %11 = getelementptr inbounds ptr, ptr %10, i64 7
  %12 = load ptr, ptr %11, align 8
  invoke void %12(ptr noundef nonnull align 8 dereferenceable(25) %5, i64 noundef %7, ptr noundef %9)
          to label %13 unwind label %14

13:                                               ; preds = %1
  ret void

14:                                               ; preds = %1
  %15 = landingpad { ptr, i32 }
          catch ptr null
  %16 = extractvalue { ptr, i32 } %15, 0
  call void @__clang_call_terminate(ptr %16) #22
  unreachable
}

; Function Attrs: mustprogress nounwind uwtable
define linkonce_odr void @_ZN5faiss13InvertedLists11ScopedCodesD2Ev(ptr noundef nonnull align 8 dereferenceable(24) %0) unnamed_addr #0 comdat align 2 personality ptr @__gxx_personality_v0 {
  %2 = alloca ptr, align 8
  store ptr %0, ptr %2, align 8
  %3 = load ptr, ptr %2, align 8
  %4 = getelementptr inbounds %"struct.faiss::InvertedLists::ScopedCodes", ptr %3, i32 0, i32 0
  %5 = load ptr, ptr %4, align 8
  %6 = getelementptr inbounds %"struct.faiss::InvertedLists::ScopedCodes", ptr %3, i32 0, i32 2
  %7 = load i64, ptr %6, align 8
  %8 = getelementptr inbounds %"struct.faiss::InvertedLists::ScopedCodes", ptr %3, i32 0, i32 1
  %9 = load ptr, ptr %8, align 8
  %10 = load ptr, ptr %5, align 8
  %11 = getelementptr inbounds ptr, ptr %10, i64 6
  %12 = load ptr, ptr %11, align 8
  invoke void %12(ptr noundef nonnull align 8 dereferenceable(25) %5, i64 noundef %7, ptr noundef %9)
          to label %13 unwind label %14

13:                                               ; preds = %1
  ret void

14:                                               ; preds = %1
  %15 = landingpad { ptr, i32 }
          catch ptr null
  %16 = extractvalue { ptr, i32 } %15, 0
  call void @__clang_call_terminate(ptr %16) #22
  unreachable
}

; Function Attrs: mustprogress nounwind uwtable
define linkonce_odr noundef ptr @_ZN5faiss13InvertedLists11ScopedCodes3getEv(ptr noundef nonnull align 8 dereferenceable(24) %0) #0 comdat align 2 {
  %2 = alloca ptr, align 8
  store ptr %0, ptr %2, align 8
  %3 = load ptr, ptr %2, align 8
  %4 = getelementptr inbounds %"struct.faiss::InvertedLists::ScopedCodes", ptr %3, i32 0, i32 1
  %5 = load ptr, ptr %4, align 8
  ret ptr %5
}

; Function Attrs: mustprogress uwtable
define linkonce_odr void @_ZN5faiss13InvertedLists11ScopedCodesC2EPKS0_m(ptr noundef nonnull align 8 dereferenceable(24) %0, ptr noundef %1, i64 noundef %2) unnamed_addr #2 comdat align 2 {
  %4 = alloca ptr, align 8
  %5 = alloca ptr, align 8
  %6 = alloca i64, align 8
  store ptr %0, ptr %4, align 8
  store ptr %1, ptr %5, align 8
  store i64 %2, ptr %6, align 8
  %7 = load ptr, ptr %4, align 8
  %8 = getelementptr inbounds %"struct.faiss::InvertedLists::ScopedCodes", ptr %7, i32 0, i32 0
  %9 = load ptr, ptr %5, align 8
  store ptr %9, ptr %8, align 8
  %10 = getelementptr inbounds %"struct.faiss::InvertedLists::ScopedCodes", ptr %7, i32 0, i32 1
  %11 = load ptr, ptr %5, align 8
  %12 = load i64, ptr %6, align 8
  %13 = load ptr, ptr %11, align 8
  %14 = getelementptr inbounds ptr, ptr %13, i64 4
  %15 = load ptr, ptr %14, align 8
  %16 = call noundef ptr %15(ptr noundef nonnull align 8 dereferenceable(25) %11, i64 noundef %12)
  store ptr %16, ptr %10, align 8
  %17 = getelementptr inbounds %"struct.faiss::InvertedLists::ScopedCodes", ptr %7, i32 0, i32 2
  %18 = load i64, ptr %6, align 8
  store i64 %18, ptr %17, align 8
  ret void
}

; Function Attrs: mustprogress nounwind uwtable
define linkonce_odr noundef ptr @_ZN5faiss13InvertedLists9ScopedIds3getEv(ptr noundef nonnull align 8 dereferenceable(24) %0) #0 comdat align 2 {
  %2 = alloca ptr, align 8
  store ptr %0, ptr %2, align 8
  %3 = load ptr, ptr %2, align 8
  %4 = getelementptr inbounds %"struct.faiss::InvertedLists::ScopedIds", ptr %3, i32 0, i32 1
  %5 = load ptr, ptr %4, align 8
  ret ptr %5
}

; Function Attrs: mustprogress uwtable
define linkonce_odr void @_ZN5faiss13InvertedLists9ScopedIdsC2EPKS0_m(ptr noundef nonnull align 8 dereferenceable(24) %0, ptr noundef %1, i64 noundef %2) unnamed_addr #2 comdat align 2 {
  %4 = alloca ptr, align 8
  %5 = alloca ptr, align 8
  %6 = alloca i64, align 8
  store ptr %0, ptr %4, align 8
  store ptr %1, ptr %5, align 8
  store i64 %2, ptr %6, align 8
  %7 = load ptr, ptr %4, align 8
  %8 = getelementptr inbounds %"struct.faiss::InvertedLists::ScopedIds", ptr %7, i32 0, i32 0
  %9 = load ptr, ptr %5, align 8
  store ptr %9, ptr %8, align 8
  %10 = getelementptr inbounds %"struct.faiss::InvertedLists::ScopedIds", ptr %7, i32 0, i32 1
  %11 = load ptr, ptr %5, align 8
  %12 = load i64, ptr %6, align 8
  %13 = load ptr, ptr %11, align 8
  %14 = getelementptr inbounds ptr, ptr %13, i64 5
  %15 = load ptr, ptr %14, align 8
  %16 = call noundef ptr %15(ptr noundef nonnull align 8 dereferenceable(25) %11, i64 noundef %12)
  store ptr %16, ptr %10, align 8
  %17 = getelementptr inbounds %"struct.faiss::InvertedLists::ScopedIds", ptr %7, i32 0, i32 2
  %18 = load i64, ptr %6, align 8
  store i64 %18, ptr %17, align 8
  ret void
}

; Function Attrs: mustprogress nounwind uwtable
define linkonce_odr noundef nonnull align 8 dereferenceable(24) ptr @_ZNSt6vectorIN5faiss13OnDiskOneListESaIS1_EEixEm(ptr noundef nonnull align 8 dereferenceable(24) %0, i64 noundef %1) #0 comdat align 2 {
  %3 = alloca ptr, align 8
  %4 = alloca i64, align 8
  store ptr %0, ptr %3, align 8
  store i64 %1, ptr %4, align 8
  %5 = load ptr, ptr %3, align 8
  %6 = getelementptr inbounds %"struct.std::_Vector_base.6", ptr %5, i32 0, i32 0
  %7 = getelementptr inbounds %"struct.std::_Vector_base<faiss::OnDiskOneList, std::allocator<faiss::OnDiskOneList>>::_Vector_impl_data", ptr %6, i32 0, i32 0
  %8 = load ptr, ptr %7, align 8
  %9 = load i64, ptr %4, align 8
  %10 = getelementptr inbounds %"struct.faiss::OnDiskOneList", ptr %8, i64 %9
  ret ptr %10
}

; Function Attrs: norecurse nounwind uwtable
define internal void @_ZN5faiss19OnDiskInvertedLists10merge_fromEPPKNS_13InvertedListsEib.omp_outlined(ptr noalias noundef %0, ptr noalias noundef %1, ptr noundef %2, ptr noundef nonnull align 4 dereferenceable(4) %3, ptr noundef nonnull align 8 dereferenceable(8) %4, ptr noundef nonnull align 1 dereferenceable(1) %5, ptr noundef nonnull align 8 dereferenceable(8) %6, ptr noundef nonnull align 8 dereferenceable(8) %7, ptr noundef nonnull align 8 dereferenceable(8) %8) #12 personality ptr @__gxx_personality_v0 {
  %10 = alloca ptr, align 8
  %11 = alloca ptr, align 8
  %12 = alloca ptr, align 8
  %13 = alloca ptr, align 8
  %14 = alloca ptr, align 8
  %15 = alloca ptr, align 8
  %16 = alloca ptr, align 8
  %17 = alloca ptr, align 8
  %18 = alloca ptr, align 8
  %19 = alloca i64, align 8
  %20 = alloca i64, align 8
  %21 = alloca i64, align 8
  %22 = alloca i64, align 8
  %23 = alloca i64, align 8
  %24 = alloca i64, align 8
  %25 = alloca i64, align 8
  %26 = alloca i32, align 4
  %27 = alloca i64, align 8
  %28 = alloca ptr, align 8
  %29 = alloca i32, align 4
  %30 = alloca ptr, align 8
  %31 = alloca i64, align 8
  %32 = alloca %"struct.faiss::InvertedLists::ScopedIds", align 8
  %33 = alloca %"struct.faiss::InvertedLists::ScopedCodes", align 8
  %34 = alloca double, align 8
  store ptr %0, ptr %10, align 8
  store ptr %1, ptr %11, align 8
  store ptr %2, ptr %12, align 8
  store ptr %3, ptr %13, align 8
  store ptr %4, ptr %14, align 8
  store ptr %5, ptr %15, align 8
  store ptr %6, ptr %16, align 8
  store ptr %7, ptr %17, align 8
  store ptr %8, ptr %18, align 8
  %35 = load ptr, ptr %12, align 8
  %36 = load ptr, ptr %13, align 8
  %37 = load ptr, ptr %14, align 8
  %38 = load ptr, ptr %15, align 8
  %39 = load ptr, ptr %16, align 8
  %40 = load ptr, ptr %17, align 8
  %41 = load ptr, ptr %18, align 8
  %42 = getelementptr inbounds %"struct.faiss::InvertedLists", ptr %35, i32 0, i32 1
  %43 = load i64, ptr %42, align 8
  store i64 %43, ptr %20, align 8
  %44 = load i64, ptr %20, align 8
  %45 = sub i64 %44, 0
  %46 = udiv i64 %45, 1
  %47 = sub i64 %46, 1
  store i64 %47, ptr %21, align 8
  store i64 0, ptr %22, align 8
  %48 = load i64, ptr %20, align 8
  %49 = icmp ult i64 0, %48
  br i1 %49, label %50, label %158

50:                                               ; preds = %9
  store i64 0, ptr %23, align 8
  %51 = load i64, ptr %21, align 8
  store i64 %51, ptr %24, align 8
  store i64 1, ptr %25, align 8
  store i32 0, ptr %26, align 4
  %52 = load ptr, ptr %10, align 8
  %53 = load i32, ptr %52, align 4
  call void @__kmpc_for_static_init_8u(ptr @1, i32 %53, i32 34, ptr %26, ptr %23, ptr %24, ptr %25, i64 1, i64 1)
  %54 = load i64, ptr %24, align 8
  %55 = load i64, ptr %21, align 8
  %56 = icmp ugt i64 %54, %55
  br i1 %56, label %57, label %59

57:                                               ; preds = %50
  %58 = load i64, ptr %21, align 8
  br label %61

59:                                               ; preds = %50
  %60 = load i64, ptr %24, align 8
  br label %61

61:                                               ; preds = %59, %57
  %62 = phi i64 [ %58, %57 ], [ %60, %59 ]
  store i64 %62, ptr %24, align 8
  %63 = load i64, ptr %23, align 8
  store i64 %63, ptr %19, align 8
  br label %64

64:                                               ; preds = %151, %61
  %65 = load i64, ptr %19, align 8
  %66 = load i64, ptr %24, align 8
  %67 = add i64 %66, 1
  %68 = icmp ult i64 %65, %67
  br i1 %68, label %69, label %154

69:                                               ; preds = %64
  %70 = load i64, ptr %19, align 8
  %71 = mul i64 %70, 1
  %72 = add i64 0, %71
  store i64 %72, ptr %27, align 8
  %73 = getelementptr inbounds %"struct.faiss::OnDiskInvertedLists", ptr %35, i32 0, i32 2
  %74 = load i64, ptr %27, align 8
  %75 = call noundef nonnull align 8 dereferenceable(24) ptr @_ZNSt6vectorIN5faiss13OnDiskOneListESaIS1_EEixEm(ptr noundef nonnull align 8 dereferenceable(24) %73, i64 noundef %74) #13
  store ptr %75, ptr %28, align 8
  store i32 0, ptr %29, align 4
  br label %76

76:                                               ; preds = %119, %69
  %77 = load i32, ptr %29, align 4
  %78 = load i32, ptr %36, align 4
  %79 = icmp slt i32 %77, %78
  br i1 %79, label %80, label %122

80:                                               ; preds = %76
  %81 = load ptr, ptr %37, align 8
  %82 = load i32, ptr %29, align 4
  %83 = sext i32 %82 to i64
  %84 = getelementptr inbounds ptr, ptr %81, i64 %83
  %85 = load ptr, ptr %84, align 8
  store ptr %85, ptr %30, align 8
  %86 = load ptr, ptr %30, align 8
  %87 = load i64, ptr %27, align 8
  %88 = load ptr, ptr %86, align 8
  %89 = getelementptr inbounds ptr, ptr %88, i64 2
  %90 = load ptr, ptr %89, align 8
  %91 = invoke noundef i64 %90(ptr noundef nonnull align 8 dereferenceable(25) %86, i64 noundef %87)
          to label %92 unwind label %159

92:                                               ; preds = %80
  store i64 %91, ptr %31, align 8
  %93 = load i64, ptr %31, align 8
  %94 = load ptr, ptr %28, align 8
  %95 = getelementptr inbounds %"struct.faiss::OnDiskOneList", ptr %94, i32 0, i32 0
  %96 = load i64, ptr %95, align 8
  %97 = add i64 %96, %93
  store i64 %97, ptr %95, align 8
  %98 = load i64, ptr %27, align 8
  %99 = load ptr, ptr %28, align 8
  %100 = getelementptr inbounds %"struct.faiss::OnDiskOneList", ptr %99, i32 0, i32 0
  %101 = load i64, ptr %100, align 8
  %102 = load i64, ptr %31, align 8
  %103 = sub i64 %101, %102
  %104 = load i64, ptr %31, align 8
  %105 = load ptr, ptr %30, align 8
  %106 = load i64, ptr %27, align 8
  invoke void @_ZN5faiss13InvertedLists9ScopedIdsC2EPKS0_m(ptr noundef nonnull align 8 dereferenceable(24) %32, ptr noundef %105, i64 noundef %106)
          to label %107 unwind label %159

107:                                              ; preds = %92
  %108 = invoke noundef ptr @_ZN5faiss13InvertedLists9ScopedIds3getEv(ptr noundef nonnull align 8 dereferenceable(24) %32)
          to label %109 unwind label %159

109:                                              ; preds = %107
  %110 = load ptr, ptr %30, align 8
  %111 = load i64, ptr %27, align 8
  invoke void @_ZN5faiss13InvertedLists11ScopedCodesC2EPKS0_m(ptr noundef nonnull align 8 dereferenceable(24) %33, ptr noundef %110, i64 noundef %111)
          to label %112 unwind label %159

112:                                              ; preds = %109
  %113 = invoke noundef ptr @_ZN5faiss13InvertedLists11ScopedCodes3getEv(ptr noundef nonnull align 8 dereferenceable(24) %33)
          to label %114 unwind label %159

114:                                              ; preds = %112
  %115 = load ptr, ptr %35, align 8
  %116 = getelementptr inbounds ptr, ptr %115, i64 14
  %117 = load ptr, ptr %116, align 8
  invoke void %117(ptr noundef nonnull align 8 dereferenceable(156) %35, i64 noundef %98, i64 noundef %103, i64 noundef %104, ptr noundef %108, ptr noundef %113)
          to label %118 unwind label %159

118:                                              ; preds = %114
  call void @_ZN5faiss13InvertedLists11ScopedCodesD2Ev(ptr noundef nonnull align 8 dereferenceable(24) %33) #13
  call void @_ZN5faiss13InvertedLists9ScopedIdsD2Ev(ptr noundef nonnull align 8 dereferenceable(24) %32) #13
  br label %119

119:                                              ; preds = %118
  %120 = load i32, ptr %29, align 4
  %121 = add nsw i32 %120, 1
  store i32 %121, ptr %29, align 4
  br label %76, !llvm.loop !33

122:                                              ; preds = %76
  %123 = load i8, ptr %38, align 1
  %124 = trunc i8 %123 to i1
  br i1 %124, label %125, label %149

125:                                              ; preds = %122
  %126 = load ptr, ptr %10, align 8
  %127 = load i32, ptr %126, align 4
  call void @__kmpc_critical(ptr @2, i32 %127, ptr @.gomp_critical_user_.var)
  %128 = load i64, ptr %39, align 8
  %129 = add i64 %128, 1
  store i64 %129, ptr %39, align 8
  %130 = invoke noundef double @_ZN5faiss12getmillisecsEv()
          to label %131 unwind label %159

131:                                              ; preds = %125
  store double %130, ptr %34, align 8
  %132 = load double, ptr %34, align 8
  %133 = load double, ptr %40, align 8
  %134 = fsub double %132, %133
  %135 = fcmp ogt double %134, 5.000000e+02
  br i1 %135, label %136, label %148

136:                                              ; preds = %131
  %137 = load i64, ptr %39, align 8
  %138 = load double, ptr %34, align 8
  %139 = load double, ptr %41, align 8
  %140 = fsub double %138, %139
  %141 = fdiv double %140, 1.000000e+03
  %142 = invoke i32 (ptr, ...) @printf(ptr noundef @.str.23, i64 noundef %137, double noundef %141)
          to label %143 unwind label %159

143:                                              ; preds = %136
  %144 = load ptr, ptr @stdout, align 8
  %145 = invoke i32 @fflush(ptr noundef %144)
          to label %146 unwind label %159

146:                                              ; preds = %143
  %147 = load double, ptr %34, align 8
  store double %147, ptr %40, align 8
  br label %148

148:                                              ; preds = %146, %131
  call void @__kmpc_end_critical(ptr @2, i32 %127, ptr @.gomp_critical_user_.var)
  br label %149

149:                                              ; preds = %148, %122
  br label %150

150:                                              ; preds = %149
  br label %151

151:                                              ; preds = %150
  %152 = load i64, ptr %19, align 8
  %153 = add i64 %152, 1
  store i64 %153, ptr %19, align 8
  br label %64

154:                                              ; preds = %64
  br label %155

155:                                              ; preds = %154
  %156 = load ptr, ptr %10, align 8
  %157 = load i32, ptr %156, align 4
  call void @__kmpc_for_static_fini(ptr @1, i32 %157)
  br label %158

158:                                              ; preds = %155, %9
  ret void

159:                                              ; preds = %143, %136, %125, %114, %112, %109, %107, %92, %80
  %160 = landingpad { ptr, i32 }
          catch ptr null
  %161 = extractvalue { ptr, i32 } %160, 0
  call void @__clang_call_terminate(ptr %161) #22
  unreachable
}