; Function Attrs: norecurse nounwind uwtable
define internal void @_ZN5faiss19OnDiskInvertedLists10merge_fromEPPKNS_13InvertedListsEib.omp_outlined(ptr noalias nocapture noundef readonly %0, ptr noalias nocapture readnone %1, ptr noundef %2, ptr nocapture noundef nonnull readonly align 4 dereferenceable(4) %3, ptr nocapture noundef nonnull readonly align 8 dereferenceable(8) %4, ptr nocapture noundef nonnull readonly align 1 dereferenceable(1) %5, ptr nocapture noundef nonnull align 8 dereferenceable(8) %6, ptr nocapture noundef nonnull align 8 dereferenceable(8) %7, ptr nocapture noundef nonnull readonly align 8 dereferenceable(8) %8) #15 personality ptr @__gxx_personality_v0 {
  %10 = alloca i64, align 8
  %11 = alloca i64, align 8
  %12 = alloca i64, align 8
  %13 = alloca i32, align 4
  %14 = getelementptr inbounds i8, ptr %2, i64 8
  %15 = load i64, ptr %14, align 8
  %.not = icmp eq i64 %15, 0
  br i1 %.not, label %89, label %16

16:                                               ; preds = %9
  %17 = add i64 %15, -1
  store i64 0, ptr %10, align 8
  store i64 %17, ptr %11, align 8
  store i64 1, ptr %12, align 8
  store i32 0, ptr %13, align 4
  %18 = load i32, ptr %0, align 4
  call void @__kmpc_for_static_init_8u(ptr nonnull @1, i32 %18, i32 34, ptr nonnull %13, ptr nonnull %10, ptr nonnull %11, ptr nonnull %12, i64 1, i64 1)
  %19 = load i64, ptr %11, align 8
  %20 = call i64 @llvm.umin.i64(i64 %19, i64 %17)
  store i64 %20, ptr %11, align 8
  %21 = load i64, ptr %10, align 8
  %.not49 = icmp ugt i64 %21, %20
  br i1 %.not49, label %._crit_edge47, label %.lr.ph46

.lr.ph46:                                         ; preds = %16
  %22 = getelementptr inbounds i8, ptr %2, i64 32
  br label %23

23:                                               ; preds = %.lr.ph46, %84
  %.044 = phi i64 [ %21, %.lr.ph46 ], [ %85, %84 ]
  %24 = load ptr, ptr %22, align 8
  %25 = getelementptr inbounds %"struct.faiss::OnDiskOneList", ptr %24, i64 %.044
  %26 = load i32, ptr %3, align 4
  %27 = icmp sgt i32 %26, 0
  br i1 %27, label %.lr.ph, label %._crit_edge

.lr.ph:                                           ; preds = %23, %_ZN5faiss13InvertedLists9ScopedIdsD2Ev.exit
  %indvars.iv = phi i64 [ %indvars.iv.next, %_ZN5faiss13InvertedLists9ScopedIdsD2Ev.exit ], [ 0, %23 ]
  %28 = load ptr, ptr %4, align 8
  %29 = getelementptr inbounds ptr, ptr %28, i64 %indvars.iv
  %30 = load ptr, ptr %29, align 8
  %31 = load ptr, ptr %30, align 8
  %32 = getelementptr inbounds i8, ptr %31, i64 16
  %33 = load ptr, ptr %32, align 8
  %34 = invoke noundef i64 %33(ptr noundef nonnull align 8 dereferenceable(25) %30, i64 noundef %.044)
          to label %35 unwind label %.loopexit

35:                                               ; preds = %.lr.ph
  %36 = load i64, ptr %25, align 8
  %37 = add i64 %36, %34
  store i64 %37, ptr %25, align 8
  %38 = load ptr, ptr %30, align 8
  %39 = getelementptr inbounds i8, ptr %38, i64 40
  %40 = load ptr, ptr %39, align 8
  %41 = invoke noundef ptr %40(ptr noundef nonnull align 8 dereferenceable(25) %30, i64 noundef %.044)
          to label %_ZN5faiss13InvertedLists9ScopedIdsC2EPKS0_m.exit unwind label %.loopexit

_ZN5faiss13InvertedLists9ScopedIdsC2EPKS0_m.exit: ; preds = %35
  %42 = load ptr, ptr %30, align 8
  %43 = getelementptr inbounds i8, ptr %42, i64 32
  %44 = load ptr, ptr %43, align 8
  %45 = invoke noundef ptr %44(ptr noundef nonnull align 8 dereferenceable(25) %30, i64 noundef %.044)
          to label %_ZN5faiss13InvertedLists11ScopedCodesC2EPKS0_m.exit unwind label %.loopexit

_ZN5faiss13InvertedLists11ScopedCodesC2EPKS0_m.exit: ; preds = %_ZN5faiss13InvertedLists9ScopedIdsC2EPKS0_m.exit
  %46 = load ptr, ptr %2, align 8
  %47 = getelementptr inbounds i8, ptr %46, i64 112
  %48 = load ptr, ptr %47, align 8
  invoke void %48(ptr noundef nonnull align 8 dereferenceable(156) %2, i64 noundef %.044, i64 noundef %36, i64 noundef %34, ptr noundef %41, ptr noundef %45)
          to label %49 unwind label %.loopexit

49:                                               ; preds = %_ZN5faiss13InvertedLists11ScopedCodesC2EPKS0_m.exit
  %50 = load ptr, ptr %30, align 8
  %51 = getelementptr inbounds i8, ptr %50, i64 48
  %52 = load ptr, ptr %51, align 8
  invoke void %52(ptr noundef nonnull align 8 dereferenceable(25) %30, i64 noundef %.044, ptr noundef %45)
          to label %_ZN5faiss13InvertedLists11ScopedCodesD2Ev.exit unwind label %53

53:                                               ; preds = %49
  %54 = landingpad { ptr, i32 }
          catch ptr null
  %55 = extractvalue { ptr, i32 } %54, 0
  call void @__clang_call_terminate(ptr %55) #28
  unreachable

_ZN5faiss13InvertedLists11ScopedCodesD2Ev.exit:   ; preds = %49
  %56 = load ptr, ptr %30, align 8
  %57 = getelementptr inbounds i8, ptr %56, i64 56
  %58 = load ptr, ptr %57, align 8
  invoke void %58(ptr noundef nonnull align 8 dereferenceable(25) %30, i64 noundef %.044, ptr noundef %41)
          to label %_ZN5faiss13InvertedLists9ScopedIdsD2Ev.exit unwind label %59

59:                                               ; preds = %_ZN5faiss13InvertedLists11ScopedCodesD2Ev.exit
  %60 = landingpad { ptr, i32 }
          catch ptr null
  %61 = extractvalue { ptr, i32 } %60, 0
  call void @__clang_call_terminate(ptr %61) #28
  unreachable

_ZN5faiss13InvertedLists9ScopedIdsD2Ev.exit:      ; preds = %_ZN5faiss13InvertedLists11ScopedCodesD2Ev.exit
  %indvars.iv.next = add nuw nsw i64 %indvars.iv, 1
  %62 = load i32, ptr %3, align 4
  %63 = sext i32 %62 to i64
  %64 = icmp slt i64 %indvars.iv.next, %63
  br i1 %64, label %.lr.ph, label %._crit_edge, !llvm.loop !40

._crit_edge:                                      ; preds = %_ZN5faiss13InvertedLists9ScopedIdsD2Ev.exit, %23
  %65 = load i8, ptr %5, align 1
  %66 = and i8 %65, 1
  %.not37 = icmp eq i8 %66, 0
  br i1 %.not37, label %84, label %67

67:                                               ; preds = %._crit_edge
  call void @__kmpc_critical(ptr nonnull @2, i32 %18, ptr nonnull @.gomp_critical_user_.var)
  %68 = load i64, ptr %6, align 8
  %69 = add i64 %68, 1
  store i64 %69, ptr %6, align 8
  %70 = invoke noundef double @_ZN5faiss12getmillisecsEv()
          to label %71 unwind label %.loopexit.split-lp

71:                                               ; preds = %67
  %72 = load double, ptr %7, align 8
  %73 = fsub double %70, %72
  %74 = fcmp ogt double %73, 5.000000e+02
  br i1 %74, label %75, label %83

75:                                               ; preds = %71
  %76 = load i64, ptr %6, align 8
  %77 = load double, ptr %8, align 8
  %78 = fsub double %70, %77
  %79 = fdiv double %78, 1.000000e+03
  %80 = call i32 (ptr, ...) @printf(ptr noundef nonnull dereferenceable(1) @.str.23, i64 noundef %76, double noundef %79)
  %81 = load ptr, ptr @stdout, align 8
  %82 = call i32 @fflush(ptr noundef %81)
  store double %70, ptr %7, align 8
  br label %83

83:                                               ; preds = %75, %71
  call void @__kmpc_end_critical(ptr nonnull @2, i32 %18, ptr nonnull @.gomp_critical_user_.var)
  br label %84

84:                                               ; preds = %83, %._crit_edge
  %85 = add nuw i64 %.044, 1
  %86 = load i64, ptr %11, align 8
  %87 = add i64 %86, 1
  %88 = icmp ult i64 %85, %87
  br i1 %88, label %23, label %._crit_edge47

._crit_edge47:                                    ; preds = %84, %16
  call void @__kmpc_for_static_fini(ptr nonnull @1, i32 %18)
  br label %89

89:                                               ; preds = %._crit_edge47, %9
  ret void

.loopexit:                                        ; preds = %.lr.ph, %_ZN5faiss13InvertedLists11ScopedCodesC2EPKS0_m.exit, %35, %_ZN5faiss13InvertedLists9ScopedIdsC2EPKS0_m.exit
  %lpad.loopexit = landingpad { ptr, i32 }
          catch ptr null
  br label %90

.loopexit.split-lp:                               ; preds = %67
  %lpad.loopexit.split-lp = landingpad { ptr, i32 }
          catch ptr null
  br label %90

90:                                               ; preds = %.loopexit.split-lp, %.loopexit
  %lpad.phi = phi { ptr, i32 } [ %lpad.loopexit, %.loopexit ], [ %lpad.loopexit.split-lp, %.loopexit.split-lp ]
  %91 = extractvalue { ptr, i32 } %lpad.phi, 0
  call void @__clang_call_terminate(ptr %91) #28
  unreachable
}